Certificate:
    Data:
        Version: 3 (0x2)
        Serial Number: 72 (0x48)
    Signature Algorithm: sha1WithRSAEncryption
        Issuer: C=SE, ST=Stockholm, L=Stockholm, O=LeanDev AB, CN=LeanDev AB CA/emailAddress=root@leandev.se
        Validity
            Not Before: May  4 13:32:38 2020 GMT
            Not After : May  2 13:32:38 2030 GMT
        Subject: C=SE, ST=Stockholm, L=Stockholm, O=LeanDev AB, CN=kim.lindeberg/emailAddress=root@leandev.se
        Subject Public Key Info:
            Public Key Algorithm: rsaEncryption
                Public-Key: (1024 bit)
                Modulus:
                    00:aa:90:8b:2c:07:03:75:84:3f:88:95:b4:71:6b:
                    0d:ea:55:a9:88:a8:48:6d:bb:03:04:a3:b4:7c:95:
                    82:58:46:c6:8b:ad:43:92:03:fe:c9:fa:69:1a:8e:
                    90:e4:79:7e:9e:d0:f7:ca:74:8a:4a:90:76:e4:ca:
                    d4:af:2e:43:70:bc:f6:d4:c8:0b:5e:58:c2:5c:f8:
                    c8:5e:05:79:b5:04:a9:d6:2c:fa:bf:c8:fe:63:b7:
                    4b:31:ac:c4:5c:c0:66:2f:81:24:d3:65:f5:71:6f:
                    95:5d:d8:37:e9:b0:9d:9f:67:4d:b9:91:21:b6:04:
                    4b:e8:ae:ca:bb:52:b0:28:39
                Exponent: 65537 (0x10001)
        X509v3 extensions:
            X509v3 Basic Constraints: 
                CA:FALSE
            Netscape Comment: 
                Easy-RSA Generated Certificate
            X509v3 Subject Key Identifier: 
                7E:98:67:67:97:BD:20:85:A4:9D:21:DB:C3:07:76:AC:D8:E6:E1:60
            X509v3 Authority Key Identifier: 
                keyid:FD:38:63:44:C0:AA:80:B5:FB:0A:D8:A6:ED:17:84:D8:AB:CB:37:DE
                DirName:/C=SE/ST=Stockholm/L=Stockholm/O=LeanDev AB/CN=LeanDev AB CA/emailAddress=root@leandev.se
                serial:82:7F:FC:D0:AA:69:72:FB

            X509v3 Extended Key Usage: 
                TLS Web Client Authentication
            X509v3 Key Usage: 
                Digital Signature
    Signature Algorithm: sha1WithRSAEncryption
         ad:b9:c9:7c:34:e5:ff:a4:08:03:61:ff:a8:1a:b7:18:85:0b:
         27:62:c9:ea:8c:59:fb:89:c8:2b:07:e9:a0:15:01:52:a8:9c:
         63:0f:97:7d:e2:49:2b:99:ef:0f:09:93:3a:bd:77:1b:db:81:
         f1:8a:d5:2a:f7:97:4a:a0:33:71:3d:17:b0:1b:50:34:32:2e:
         b6:58:c7:d8:97:a1:f9:18:67:d2:42:cc:36:56:21:ae:e5:83:
         ab:99:61:69:2b:90:66:85:a2:be:db:a0:98:5d:4f:99:ac:b1:
         fc:14:4a:a6:c0:f2:3d:24:36:27:34:67:fd:48:ec:21:8d:83:
         bf:c8
-----BEGIN CERTIFICATE-----
MIIDtzCCAyCgAwIBAgIBSDANBgkqhkiG9w0BAQUFADCBgjELMAkGA1UEBhMCU0Ux
EjAQBgNVBAgTCVN0b2NraG9sbTESMBAGA1UEBxMJU3RvY2tob2xtMRMwEQYDVQQK
EwpMZWFuRGV2IEFCMRYwFAYDVQQDEw1MZWFuRGV2IEFCIENBMR4wHAYJKoZIhvcN
AQkBFg9yb290QGxlYW5kZXYuc2UwHhcNMjAwNTA0MTMzMjM4WhcNMzAwNTAyMTMz
MjM4WjCBgjELMAkGA1UEBhMCU0UxEjAQBgNVBAgTCVN0b2NraG9sbTESMBAGA1UE
BxMJU3RvY2tob2xtMRMwEQYDVQQKEwpMZWFuRGV2IEFCMRYwFAYDVQQDEw1raW0u
bGluZGViZXJnMR4wHAYJKoZIhvcNAQkBFg9yb290QGxlYW5kZXYuc2UwgZ8wDQYJ
KoZIhvcNAQEBBQADgY0AMIGJAoGBAKqQiywHA3WEP4iVtHFrDepVqYioSG27AwSj
tHyVglhGxoutQ5ID/sn6aRqOkOR5fp7Q98p0ikqQduTK1K8uQ3C89tTIC15Ywlz4
yF4FebUEqdYs+r/I/mO3SzGsxFzAZi+BJNNl9XFvlV3YN+mwnZ9nTbmRIbYES+iu
yrtSsCg5AgMBAAGjggE5MIIBNTAJBgNVHRMEAjAAMC0GCWCGSAGG+EIBDQQgFh5F
YXN5LVJTQSBHZW5lcmF0ZWQgQ2VydGlmaWNhdGUwHQYDVR0OBBYEFH6YZ2eXvSCF
pJ0h28MHdqzY5uFgMIG3BgNVHSMEga8wgayAFP04Y0TAqoC1+wrYpu0XhNiryzfe
oYGIpIGFMIGCMQswCQYDVQQGEwJTRTESMBAGA1UECBMJU3RvY2tob2xtMRIwEAYD
VQQHEwlTdG9ja2hvbG0xEzARBgNVBAoTCkxlYW5EZXYgQUIxFjAUBgNVBAMTDUxl
YW5EZXYgQUIgQ0ExHjAcBgkqhkiG9w0BCQEWD3Jvb3RAbGVhbmRldi5zZYIJAIJ/
/NCqaXL7MBMGA1UdJQQMMAoGCCsGAQUFBwMCMAsGA1UdDwQEAwIHgDANBgkqhkiG
9w0BAQUFAAOBgQCtucl8NOX/pAgDYf+oGrcYhQsnYsnqjFn7icgrB+mgFQFSqJxj
D5d94kkrme8PCZM6vXcb24HxitUq95dKoDNxPRewG1A0Mi62WMfYl6H5GGfSQsw2
ViGu5YOrmWFpK5BmhaK+26CYXU+ZrLH8FEqmwPI9JDYnNGf9SOwhjYO/yA==
-----END CERTIFICATE-----
