Certificate:
    Data:
        Version: 3 (0x2)
        Serial Number: 25 (0x19)
        Signature Algorithm: sha1WithRSAEncryption
        Issuer: C=SE, L=Kista, O=LeanDev, CN=hoist/emailAddress=leandev-it@leandev.se
        Validity
            Not Before: May  7 10:12:36 2020 GMT
            Not After : May  5 10:12:36 2030 GMT
        Subject: C=SE, ST=Stockholm, L=Stockholm, O=Vilja, CN=kim.lindeberg/emailAddress=list-operations@viljasolutions.com
        Subject Public Key Info:
            Public Key Algorithm: rsaEncryption
            RSA Public Key: (1024 bit)
                Modulus (1024 bit):
                    00:bb:ed:c4:f2:a9:bd:81:a5:8d:85:30:9e:9d:61:
                    1c:66:ec:90:12:2f:20:13:0f:a8:ac:33:c9:d7:8b:
                    ef:5a:9e:24:4e:26:07:20:ad:42:78:33:48:3f:03:
                    33:15:4d:51:94:9e:55:13:f7:fb:55:96:4b:cc:24:
                    bc:10:1d:bb:f8:e9:1c:3f:43:c8:3f:21:d5:8a:91:
                    f7:97:c8:41:29:da:1e:a7:3c:cb:64:16:74:91:b7:
                    bd:86:a7:cb:8f:73:cd:cb:21:e2:03:bd:6b:6b:31:
                    56:98:0a:f1:b7:0a:ef:c3:54:f8:9b:44:c5:a6:92:
                    07:6a:81:76:dd:e5:9b:12:c3
                Exponent: 65537 (0x10001)
        X509v3 extensions:
            X509v3 Basic Constraints: 
                CA:FALSE
            Netscape Comment: 
                Easy-RSA Generated Certificate
            X509v3 Subject Key Identifier: 
                64:91:75:0B:2C:59:DD:98:A4:62:7F:0C:2F:4F:D6:EE:2A:BB:E3:EE
            X509v3 Authority Key Identifier: 
                keyid:38:8F:F2:6B:25:FB:FB:04:8E:B4:B8:B6:EC:00:AF:51:CE:FA:DC:26
                DirName:/C=SE/L=Kista/O=LeanDev/CN=hoist/emailAddress=leandev-it@leandev.se
                serial:A0:AB:5B:33:FA:CE:E9:E5

            X509v3 Extended Key Usage: 
                TLS Web Client Authentication
            X509v3 Key Usage: 
                Digital Signature
    Signature Algorithm: sha1WithRSAEncryption
        83:98:38:f6:67:7a:9f:ce:37:00:3f:2f:56:2e:e6:b2:e3:b0:
        a4:ec:56:c3:42:20:c6:b7:58:c2:c6:2d:57:b8:3d:77:6a:61:
        4e:98:bb:7f:97:6d:a2:39:bc:6c:25:19:7e:e0:32:e8:02:f1:
        18:88:bb:84:3f:04:6c:5b:66:dd:12:c7:79:71:46:43:31:42:
        de:d1:d7:7b:fa:2c:c2:4c:1b:d7:7f:e1:2d:25:06:f0:db:1a:
        f8:87:65:13:db:9c:b3:87:7e:7e:b4:2a:be:0d:c4:20:1c:3b:
        02:a2:41:e3:10:b6:7b:bf:3f:f4:83:5c:9b:49:5b:37:65:b3:
        c1:21
-----BEGIN CERTIFICATE-----
MIIDhzCCAvCgAwIBAgIBGTANBgkqhkiG9w0BAQUFADBlMQswCQYDVQQGEwJTRTEO
MAwGA1UEBxMFS2lzdGExEDAOBgNVBAoTB0xlYW5EZXYxDjAMBgNVBAMTBWhvaXN0
MSQwIgYJKoZIhvcNAQkBFhVsZWFuZGV2LWl0QGxlYW5kZXYuc2UwHhcNMjAwNTA3
MTAxMjM2WhcNMzAwNTA1MTAxMjM2WjCBkDELMAkGA1UEBhMCU0UxEjAQBgNVBAgT
CVN0b2NraG9sbTESMBAGA1UEBxMJU3RvY2tob2xtMQ4wDAYDVQQKEwVWaWxqYTEW
MBQGA1UEAxMNa2ltLmxpbmRlYmVyZzExMC8GCSqGSIb3DQEJARYibGlzdC1vcGVy
YXRpb25zQHZpbGphc29sdXRpb25zLmNvbTCBnzANBgkqhkiG9w0BAQEFAAOBjQAw
gYkCgYEAu+3E8qm9gaWNhTCenWEcZuyQEi8gEw+orDPJ14vvWp4kTiYHIK1CeDNI
PwMzFU1RlJ5VE/f7VZZLzCS8EB27+OkcP0PIPyHVipH3l8hBKdoepzzLZBZ0kbe9
hqfLj3PNyyHiA71razFWmArxtwrvw1T4m0TFppIHaoF23eWbEsMCAwEAAaOCARkw
ggEVMAkGA1UdEwQCMAAwLQYJYIZIAYb4QgENBCAWHkVhc3ktUlNBIEdlbmVyYXRl
ZCBDZXJ0aWZpY2F0ZTAdBgNVHQ4EFgQUZJF1CyxZ3ZikYn8ML0/W7iq74+4wgZcG
A1UdIwSBjzCBjIAUOI/yayX7+wSOtLi27ACvUc763CahaaRnMGUxCzAJBgNVBAYT
AlNFMQ4wDAYDVQQHEwVLaXN0YTEQMA4GA1UEChMHTGVhbkRldjEOMAwGA1UEAxMF
aG9pc3QxJDAiBgkqhkiG9w0BCQEWFWxlYW5kZXYtaXRAbGVhbmRldi5zZYIJAKCr
WzP6zunlMBMGA1UdJQQMMAoGCCsGAQUFBwMCMAsGA1UdDwQEAwIHgDANBgkqhkiG
9w0BAQUFAAOBgQCDmDj2Z3qfzjcAPy9WLuay47Ck7FbDQiDGt1jCxi1XuD13amFO
mLt/l22iObxsJRl+4DLoAvEYiLuEPwRsW2bdEsd5cUZDMULe0dd7+izCTBvXf+Et
JQbw2xr4h2UT25yzh35+tCq+DcQgHDsCokHjELZ7vz/0g1ybSVs3ZbPBIQ==
-----END CERTIFICATE-----
