Certificate:
    Data:
        Version: 3 (0x2)
        Serial Number: 15 (0xf)
    Signature Algorithm: sha1WithRSAEncryption
        Issuer: C=SE, ST=Stockholm, L=Kista, O=LeanDev AB, OU=server, CN=lfp-app1/name=server/emailAddress=info@leandev.se
        Validity
            Not Before: May  7 10:02:26 2020 GMT
            Not After : May  5 10:02:26 2030 GMT
        Subject: C=SE, ST=Stockholm, L=Kista, O=LeanDev AB, OU=server, CN=kim.lindeberg/name=server/emailAddress=info@leandev.se
        Subject Public Key Info:
            Public Key Algorithm: rsaEncryption
                Public-Key: (1024 bit)
                Modulus:
                    00:c4:58:3d:25:75:df:b2:a1:6e:63:e0:e7:e8:44:
                    29:99:56:ac:e4:71:ca:5f:95:21:b8:96:47:61:ed:
                    1b:7d:f1:51:df:af:66:c7:69:7f:98:85:07:73:03:
                    ef:40:5c:89:51:42:9e:70:b8:29:2b:83:96:79:4e:
                    39:74:03:19:74:08:f7:24:24:6b:46:75:c5:15:87:
                    1c:79:13:52:47:60:36:4d:e2:80:83:a1:26:0c:1d:
                    97:d5:0b:28:01:f0:78:0b:3f:1d:de:29:8b:e7:82:
                    23:5e:63:0f:93:28:a4:0b:cc:25:1b:50:c4:2c:dc:
                    de:e9:f4:86:4e:c6:89:06:03
                Exponent: 65537 (0x10001)
        X509v3 extensions:
            X509v3 Basic Constraints: 
                CA:FALSE
            Netscape Comment: 
                Easy-RSA Generated Certificate
            X509v3 Subject Key Identifier: 
                A3:95:08:0F:3C:D7:46:A6:8B:72:04:98:6D:96:CE:E5:34:78:9F:0C
            X509v3 Authority Key Identifier: 
                keyid:55:5D:52:C3:02:6F:2E:9E:A3:C9:63:6F:40:93:A4:91:40:D2:18:9E
                DirName:/C=SE/ST=Stockholm/L=Kista/O=LeanDev AB/OU=server/CN=lfp-app1/name=server/emailAddress=info@leandev.se
                serial:BA:1E:16:E5:ED:F0:B2:78

            X509v3 Extended Key Usage: 
                TLS Web Client Authentication
            X509v3 Key Usage: 
                Digital Signature
    Signature Algorithm: sha1WithRSAEncryption
         95:c6:0e:eb:eb:b4:0a:1b:eb:ab:bb:b7:0b:cc:03:d3:82:52:
         2a:fe:27:37:4a:33:68:64:7c:09:e7:2e:c6:8b:87:33:fb:48:
         fa:e5:f8:7b:d0:e7:f7:53:c8:4a:38:19:7d:db:e3:d3:7d:d0:
         5a:53:45:94:8e:ac:39:a0:21:79:3b:c6:8f:7a:84:b4:a1:f6:
         be:0b:4e:93:76:a4:6c:b0:57:36:19:b6:da:2b:ed:db:eb:dc:
         15:47:19:0c:0d:e4:a1:22:f4:ac:9a:99:57:de:85:cf:26:1f:
         14:4e:7e:52:79:43:42:52:d2:9e:b6:69:ae:4c:83:ba:ab:4e:
         11:23
-----BEGIN CERTIFICATE-----
MIIEBzCCA3CgAwIBAgIBDzANBgkqhkiG9w0BAQUFADCBmzELMAkGA1UEBhMCU0Ux
EjAQBgNVBAgTCVN0b2NraG9sbTEOMAwGA1UEBxMFS2lzdGExEzARBgNVBAoTCkxl
YW5EZXYgQUIxDzANBgNVBAsTBnNlcnZlcjERMA8GA1UEAxMIbGZwLWFwcDExDzAN
BgNVBCkTBnNlcnZlcjEeMBwGCSqGSIb3DQEJARYPaW5mb0BsZWFuZGV2LnNlMB4X
DTIwMDUwNzEwMDIyNloXDTMwMDUwNTEwMDIyNlowgaAxCzAJBgNVBAYTAlNFMRIw
EAYDVQQIEwlTdG9ja2hvbG0xDjAMBgNVBAcTBUtpc3RhMRMwEQYDVQQKEwpMZWFu
RGV2IEFCMQ8wDQYDVQQLEwZzZXJ2ZXIxFjAUBgNVBAMTDWtpbS5saW5kZWJlcmcx
DzANBgNVBCkTBnNlcnZlcjEeMBwGCSqGSIb3DQEJARYPaW5mb0BsZWFuZGV2LnNl
MIGfMA0GCSqGSIb3DQEBAQUAA4GNADCBiQKBgQDEWD0ldd+yoW5j4OfoRCmZVqzk
ccpflSG4lkdh7Rt98VHfr2bHaX+YhQdzA+9AXIlRQp5wuCkrg5Z5Tjl0Axl0CPck
JGtGdcUVhxx5E1JHYDZN4oCDoSYMHZfVCygB8HgLPx3eKYvngiNeYw+TKKQLzCUb
UMQs3N7p9IZOxokGAwIDAQABo4IBUjCCAU4wCQYDVR0TBAIwADAtBglghkgBhvhC
AQ0EIBYeRWFzeS1SU0EgR2VuZXJhdGVkIENlcnRpZmljYXRlMB0GA1UdDgQWBBSj
lQgPPNdGpotyBJhtls7lNHifDDCB0AYDVR0jBIHIMIHFgBRVXVLDAm8unqPJY29A
k6SRQNIYnqGBoaSBnjCBmzELMAkGA1UEBhMCU0UxEjAQBgNVBAgTCVN0b2NraG9s
bTEOMAwGA1UEBxMFS2lzdGExEzARBgNVBAoTCkxlYW5EZXYgQUIxDzANBgNVBAsT
BnNlcnZlcjERMA8GA1UEAxMIbGZwLWFwcDExDzANBgNVBCkTBnNlcnZlcjEeMBwG
CSqGSIb3DQEJARYPaW5mb0BsZWFuZGV2LnNlggkAuh4W5e3wsngwEwYDVR0lBAww
CgYIKwYBBQUHAwIwCwYDVR0PBAQDAgeAMA0GCSqGSIb3DQEBBQUAA4GBAJXGDuvr
tAob66u7twvMA9OCUir+JzdKM2hkfAnnLsaLhzP7SPrl+HvQ5/dTyEo4GX3b49N9
0FpTRZSOrDmgIXk7xo96hLSh9r4LTpN2pGywVzYZttor7dvr3BVHGQwN5KEi9Kya
mVfehc8mHxROflJ5Q0JS0p62aa5Mg7qrThEj
-----END CERTIFICATE-----
