Certificate:
    Data:
        Version: 3 (0x2)
        Serial Number:
            8a:0c:42:a0:65:42:16:1b:43:31:87:27:df:19:e7:52
    Signature Algorithm: sha256WithRSAEncryption
        Issuer: CN=LeanDev VPN Staff CA
        Validity
            Not Before: Jun 16 09:44:26 2020 GMT
            Not After : Jun  1 09:44:26 2023 GMT
        Subject: CN=kim.lindeberg@viljasolutions.com
        Subject Public Key Info:
            Public Key Algorithm: rsaEncryption
                Public-Key: (2048 bit)
                Modulus:
                    00:ce:d5:7d:47:96:75:3c:0f:9d:a6:d6:01:7c:93:
                    bf:35:b7:51:42:7a:7d:47:e4:96:63:5e:76:25:96:
                    50:ea:56:ac:9d:e4:c6:2a:05:a7:e1:8e:c1:5b:ae:
                    53:2d:29:af:53:5c:8d:93:c2:9d:99:3e:36:11:48:
                    a0:5b:cf:f1:4f:e5:eb:93:f3:51:db:df:3e:4c:b2:
                    5e:74:ac:a3:e8:3d:dd:e8:57:20:0e:a0:33:68:a2:
                    13:2a:68:ca:9e:ec:dd:37:53:e1:16:0a:7f:b7:85:
                    5e:d3:9c:28:f6:e3:b1:cd:14:a6:55:ba:49:95:8e:
                    d1:1a:56:c3:31:de:1b:0d:88:25:62:12:ce:b7:19:
                    ac:ec:39:76:f0:2d:81:2d:62:80:21:f8:2c:ee:16:
                    4e:dd:6c:ab:6d:f8:22:b0:6d:57:58:89:a1:99:aa:
                    3b:24:bc:fe:97:ba:0d:a7:d1:b1:3c:0f:e8:bf:cc:
                    e5:d2:f4:0c:0c:4f:c1:81:ad:0b:f4:23:ea:22:d2:
                    39:4c:ab:27:5d:4b:48:ef:ee:31:ee:01:a4:56:0c:
                    ae:ee:f8:ed:f8:5f:ec:ba:14:28:da:d7:f6:1d:05:
                    ad:96:b2:91:c1:68:7f:49:cc:9e:2a:da:81:35:cd:
                    b3:f8:35:72:d4:da:70:f2:55:e9:f5:1c:ae:a0:c6:
                    84:41
                Exponent: 65537 (0x10001)
        X509v3 extensions:
            X509v3 Basic Constraints: 
                CA:FALSE
            X509v3 Subject Key Identifier: 
                1F:FF:91:3E:AE:CE:0D:21:5D:70:C9:8C:8A:C3:5D:D6:0A:ED:B1:CA
            X509v3 Authority Key Identifier: 
                keyid:F8:67:5D:37:0D:70:C6:EC:6B:97:76:A7:10:65:9A:CC:8D:20:2E:12
                DirName:/CN=LeanDev VPN Staff CA
                serial:AE:FE:BF:CD:8B:EE:10:A9

            X509v3 Extended Key Usage: 
                TLS Web Client Authentication
            X509v3 Key Usage: 
                Digital Signature
    Signature Algorithm: sha256WithRSAEncryption
         77:77:87:13:a7:15:65:d2:93:20:48:f8:d8:e8:2c:20:d9:da:
         c3:ab:61:c9:4d:c8:3b:5f:12:e6:89:7c:44:35:f8:9d:91:83:
         c2:95:9e:c7:18:4f:c5:3f:fc:b0:5e:52:9c:f3:95:22:48:26:
         6c:39:85:be:16:ba:43:66:55:02:92:4e:58:fe:d2:10:94:76:
         cb:1d:6f:35:09:fa:1d:6d:11:ec:81:3f:50:04:cf:be:3c:b2:
         60:62:64:02:ab:49:e0:67:fc:84:4e:a9:ce:1f:f9:89:b1:76:
         63:2d:d5:00:6c:19:3b:fd:fd:4f:29:6d:9a:85:64:50:7a:65:
         20:89:c9:2c:0c:8b:7f:db:b0:19:43:c9:93:10:8d:a3:72:db:
         60:3f:8d:0b:c4:c6:92:03:26:08:a2:91:00:df:58:71:fb:63:
         8e:01:d0:e6:c7:b3:38:9c:3c:ee:4a:8d:07:e0:bc:7a:d2:b5:
         0d:a9:98:dd:65:4f:df:03:e2:55:07:af:cf:fa:5b:4e:cd:d2:
         16:bc:8c:e0:c8:c4:47:8c:7f:1d:70:c8:9b:85:86:5b:ab:e0:
         73:94:b6:62:1d:e3:04:3f:ae:f3:7f:fc:cc:25:89:3b:26:6f:
         5b:83:ec:b1:11:2f:21:b1:ff:ff:e2:3b:b3:73:fe:23:b1:7a:
         16:5f:42:91
-----BEGIN CERTIFICATE-----
MIIDdjCCAl6gAwIBAgIRAIoMQqBlQhYbQzGHJ98Z51IwDQYJKoZIhvcNAQELBQAw
HzEdMBsGA1UEAwwUTGVhbkRldiBWUE4gU3RhZmYgQ0EwHhcNMjAwNjE2MDk0NDI2
WhcNMjMwNjAxMDk0NDI2WjArMSkwJwYDVQQDDCBraW0ubGluZGViZXJnQHZpbGph
c29sdXRpb25zLmNvbTCCASIwDQYJKoZIhvcNAQEBBQADggEPADCCAQoCggEBAM7V
fUeWdTwPnabWAXyTvzW3UUJ6fUfklmNediWWUOpWrJ3kxioFp+GOwVuuUy0pr1Nc
jZPCnZk+NhFIoFvP8U/l65PzUdvfPkyyXnSso+g93ehXIA6gM2iiEypoyp7s3TdT
4RYKf7eFXtOcKPbjsc0UplW6SZWO0RpWwzHeGw2IJWISzrcZrOw5dvAtgS1igCH4
LO4WTt1sq234IrBtV1iJoZmqOyS8/pe6DafRsTwP6L/M5dL0DAxPwYGtC/Qj6iLS
OUyrJ11LSO/uMe4BpFYMru747fhf7LoUKNrX9h0FrZaykcFof0nMniragTXNs/g1
ctTacPJV6fUcrqDGhEECAwEAAaOBoDCBnTAJBgNVHRMEAjAAMB0GA1UdDgQWBBQf
/5E+rs4NIV1wyYyKw13WCu2xyjBPBgNVHSMESDBGgBT4Z103DXDG7GuXdqcQZZrM
jSAuEqEjpCEwHzEdMBsGA1UEAwwUTGVhbkRldiBWUE4gU3RhZmYgQ0GCCQCu/r/N
i+4QqTATBgNVHSUEDDAKBggrBgEFBQcDAjALBgNVHQ8EBAMCB4AwDQYJKoZIhvcN
AQELBQADggEBAHd3hxOnFWXSkyBI+NjoLCDZ2sOrYclNyDtfEuaJfEQ1+J2Rg8KV
nscYT8U//LBeUpzzlSJIJmw5hb4WukNmVQKSTlj+0hCUdssdbzUJ+h1tEeyBP1AE
z748smBiZAKrSeBn/IROqc4f+YmxdmMt1QBsGTv9/U8pbZqFZFB6ZSCJySwMi3/b
sBlDyZMQjaNy22A/jQvExpIDJgiikQDfWHH7Y44B0ObHszicPO5KjQfgvHrStQ2p
mN1lT98D4lUHr8/6W07N0ha8jODIxEeMfx1wyJuFhlur4HOUtmId4wQ/rvN//Mwl
iTsmb1uD7LERLyGx///iO7Nz/iOxehZfQpE=
-----END CERTIFICATE-----
