Certificate:
    Data:
        Version: 3 (0x2)
        Serial Number: 21 (0x15)
    Signature Algorithm: sha256WithRSAEncryption
        Issuer: C=SE, ST=Stockholm, L=Kista, O=LeanDev AB, OU=IT, CN=LeanDev AB CA/name=EasyRSA/emailAddress=list-operations@leandev.se
        Validity
            Not Before: May  5 08:33:55 2020 GMT
            Not After : May  3 08:33:55 2030 GMT
        Subject: C=SE, ST=Stockholm, L=Kista, O=Vilja, OU=IT, CN=kim.lindeberg/name=EasyRSA/emailAddress=list-operations@leandev.se
        Subject Public Key Info:
            Public Key Algorithm: rsaEncryption
                Public-Key: (2048 bit)
                Modulus:
                    00:d1:ca:e8:c1:99:ba:8b:2e:5d:89:f8:05:9f:4f:
                    0b:eb:bf:51:0e:54:71:64:c7:b4:80:b8:f5:20:da:
                    a5:ae:3f:0b:0a:80:30:9c:35:dc:aa:84:6a:5b:8a:
                    51:0b:b0:cb:9d:c0:a5:a5:26:cd:f8:0e:79:6e:b5:
                    ee:6f:26:87:35:ad:26:7b:d0:56:dc:51:05:18:f9:
                    7a:94:8e:b9:56:95:15:ea:ac:bd:f6:b0:62:f0:00:
                    40:ca:97:b4:fd:72:9d:be:3d:cb:5a:52:0b:4a:68:
                    73:7f:d4:9e:fc:dc:d0:49:c5:03:35:fe:a4:d3:87:
                    ab:d3:f7:a2:a0:39:00:c0:e5:fe:f9:1c:3a:08:e2:
                    89:dd:76:06:57:e8:67:97:43:2b:68:b8:87:89:db:
                    92:ec:f6:9b:f3:c7:28:66:11:f8:c5:e5:e8:36:b3:
                    5b:c7:65:5d:87:03:ed:e5:56:7d:97:e9:93:15:72:
                    7f:a1:eb:47:26:df:b8:4f:3e:37:98:39:49:a0:b3:
                    ea:13:05:11:89:69:f2:1e:01:73:9d:bd:fc:bc:19:
                    76:28:c0:ce:56:5d:9b:fe:66:f6:83:46:3d:d0:d2:
                    68:d3:3a:e0:6b:33:b6:ea:85:a6:20:b3:d9:a1:23:
                    f6:9c:29:17:6b:62:67:6e:71:ae:41:31:b6:e0:5a:
                    37:19
                Exponent: 65537 (0x10001)
        X509v3 extensions:
            X509v3 Basic Constraints: 
                CA:FALSE
            Netscape Comment: 
                Easy-RSA Generated Certificate
            X509v3 Subject Key Identifier: 
                10:40:D3:86:81:12:BB:C5:5A:53:EB:85:D5:54:27:BC:6D:7C:03:53
            X509v3 Authority Key Identifier: 
                keyid:F3:3D:57:15:31:77:3C:51:31:BE:80:78:30:A7:0E:D3:DE:FB:A3:94
                DirName:/C=SE/ST=Stockholm/L=Kista/O=LeanDev AB/OU=IT/CN=LeanDev AB CA/name=EasyRSA/emailAddress=list-operations@leandev.se
                serial:FE:F6:07:AE:99:CB:32:96

            X509v3 Extended Key Usage: 
                TLS Web Client Authentication
            X509v3 Key Usage: 
                Digital Signature
            X509v3 Subject Alternative Name: 
                DNS:kim.lindeberg
    Signature Algorithm: sha256WithRSAEncryption
         47:af:cd:a1:b7:ae:6e:fe:ee:e2:42:67:9d:f3:e1:99:ce:34:
         2e:e9:f2:63:6b:ee:c5:e1:45:98:f4:3f:ae:47:48:7f:41:c7:
         ce:26:9c:3a:58:97:61:60:4b:81:eb:7b:ce:be:9c:9c:82:99:
         00:58:29:b9:0f:5c:0e:2d:4e:a1:63:5e:c5:9f:d9:18:ed:e3:
         20:28:f3:c8:18:06:b9:48:57:8d:58:1c:ef:46:f8:5a:31:1a:
         fb:07:fc:b0:37:fa:ec:26:9c:ef:69:48:f8:78:52:7d:dd:bd:
         f3:78:ae:d0:92:1a:09:52:59:ef:e3:aa:af:a7:aa:ed:45:0f:
         a3:d4:8b:98:f5:da:ff:aa:4a:60:6d:15:62:c0:ce:48:03:10:
         35:14:d4:d9:7e:92:3c:d2:90:b1:71:a5:eb:a9:8c:6f:f5:58:
         36:c0:1c:bf:23:42:69:1e:a7:c5:6b:67:00:96:b2:86:01:74:
         8d:91:93:6f:2a:c8:bb:46:c8:b7:a3:82:52:64:75:f3:06:fd:
         1d:0e:d0:e4:8b:39:27:fe:b0:b2:9a:c1:a7:31:2a:ba:03:0f:
         15:96:91:6c:bf:81:a6:e4:cb:ff:c4:f9:83:76:c3:25:30:f0:
         44:98:56:49:80:d9:be:75:5c:9b:77:f5:f1:19:f4:b0:a6:22:
         3a:89:3b:d8
-----BEGIN CERTIFICATE-----
MIIFQzCCBCugAwIBAgIBFTANBgkqhkiG9w0BAQsFADCBqDELMAkGA1UEBhMCU0Ux
EjAQBgNVBAgTCVN0b2NraG9sbTEOMAwGA1UEBxMFS2lzdGExEzARBgNVBAoTCkxl
YW5EZXYgQUIxCzAJBgNVBAsTAklUMRYwFAYDVQQDEw1MZWFuRGV2IEFCIENBMRAw
DgYDVQQpEwdFYXN5UlNBMSkwJwYJKoZIhvcNAQkBFhpsaXN0LW9wZXJhdGlvbnNA
bGVhbmRldi5zZTAeFw0yMDA1MDUwODMzNTVaFw0zMDA1MDMwODMzNTVaMIGjMQsw
CQYDVQQGEwJTRTESMBAGA1UECBMJU3RvY2tob2xtMQ4wDAYDVQQHEwVLaXN0YTEO
MAwGA1UEChMFVmlsamExCzAJBgNVBAsTAklUMRYwFAYDVQQDEw1raW0ubGluZGVi
ZXJnMRAwDgYDVQQpEwdFYXN5UlNBMSkwJwYJKoZIhvcNAQkBFhpsaXN0LW9wZXJh
dGlvbnNAbGVhbmRldi5zZTCCASIwDQYJKoZIhvcNAQEBBQADggEPADCCAQoCggEB
ANHK6MGZuosuXYn4BZ9PC+u/UQ5UcWTHtIC49SDapa4/CwqAMJw13KqEaluKUQuw
y53ApaUmzfgOeW617m8mhzWtJnvQVtxRBRj5epSOuVaVFeqsvfawYvAAQMqXtP1y
nb49y1pSC0poc3/Unvzc0EnFAzX+pNOHq9P3oqA5AMDl/vkcOgjiid12BlfoZ5dD
K2i4h4nbkuz2m/PHKGYR+MXl6DazW8dlXYcD7eVWfZfpkxVyf6HrRybfuE8+N5g5
SaCz6hMFEYlp8h4Bc529/LwZdijAzlZdm/5m9oNGPdDSaNM64GsztuqFpiCz2aEj
9pwpF2tiZ25xrkExtuBaNxkCAwEAAaOCAXkwggF1MAkGA1UdEwQCMAAwLQYJYIZI
AYb4QgENBCAWHkVhc3ktUlNBIEdlbmVyYXRlZCBDZXJ0aWZpY2F0ZTAdBgNVHQ4E
FgQUEEDThoESu8VaU+uF1VQnvG18A1Mwgd0GA1UdIwSB1TCB0oAU8z1XFTF3PFEx
voB4MKcO0977o5Shga6kgaswgagxCzAJBgNVBAYTAlNFMRIwEAYDVQQIEwlTdG9j
a2hvbG0xDjAMBgNVBAcTBUtpc3RhMRMwEQYDVQQKEwpMZWFuRGV2IEFCMQswCQYD
VQQLEwJJVDEWMBQGA1UEAxMNTGVhbkRldiBBQiBDQTEQMA4GA1UEKRMHRWFzeVJT
QTEpMCcGCSqGSIb3DQEJARYabGlzdC1vcGVyYXRpb25zQGxlYW5kZXYuc2WCCQD+
9geumcsyljATBgNVHSUEDDAKBggrBgEFBQcDAjALBgNVHQ8EBAMCB4AwGAYDVR0R
BBEwD4INa2ltLmxpbmRlYmVyZzANBgkqhkiG9w0BAQsFAAOCAQEAR6/Nobeubv7u
4kJnnfPhmc40LunyY2vuxeFFmPQ/rkdIf0HHziacOliXYWBLget7zr6cnIKZAFgp
uQ9cDi1OoWNexZ/ZGO3jICjzyBgGuUhXjVgc70b4WjEa+wf8sDf67Cac72lI+HhS
fd2983iu0JIaCVJZ7+Oqr6eq7UUPo9SLmPXa/6pKYG0VYsDOSAMQNRTU2X6SPNKQ
sXGl66mMb/VYNsAcvyNCaR6nxWtnAJayhgF0jZGTbyrIu0bIt6OCUmR18wb9HQ7Q
5Is5J/6wsprBpzEqugMPFZaRbL+BpuTL/8T5g3bDJTDwRJhWSYDZvnVcm3f18Rn0
sKYiOok72A==
-----END CERTIFICATE-----
